target datalayout = "e-m:e-p270:32:32-p271:32:32-p272:64:64-i64:64-i128:128-f80:128-n8:16:32:64-S128"
target triple = "x86_64-pc-linux-gnu"

%struct.rb_data_type_struct = type { ptr, %struct.anon.12, ptr, ptr, i64 }
%struct.anon.12 = type { ptr, ptr, ptr, ptr, [1 x ptr] }
%struct.weakkeymap = type { ptr }

@weakkeymap_type = internal constant %struct.rb_data_type_struct { ptr @.str.27, %struct.anon.12 { ptr @wkmap_mark, ptr @wkmap_free, ptr @wkmap_memsize, ptr @wkmap_compact, [1 x ptr] zeroinitializer }, ptr null, ptr null, i64 35 }, align 8

; Function Attrs: inlinehint nounwind sspstrong willreturn memory(none) uwtable
define internal zeroext i1 @RB_UNDEF_P(i64 noundef %0) #4 {
  %2 = alloca i64, align 8
  store i64 %0, ptr %2, align 8, !tbaa !7
  %3 = load i64, ptr %2, align 8, !tbaa !7
  %4 = icmp eq i64 %3, 36
  ret i1 %4
}

; Function Attrs: nounwind sspstrong uwtable
define internal i64 @wkmap_lookup(i64 noundef %0, i64 noundef %1) #0 {
  %3 = alloca i64, align 8
  %4 = alloca i64, align 8
  %5 = alloca i64, align 8
  %6 = alloca ptr, align 8
  %7 = alloca i64, align 8
  %8 = alloca i32, align 4
  store i64 %0, ptr %4, align 8, !tbaa !7
  store i64 %1, ptr %5, align 8, !tbaa !7
  call void @llvm.lifetime.start.p0(i64 8, ptr %6) #15
  %9 = load i64, ptr %4, align 8, !tbaa !7
  %10 = call ptr @rb_check_typeddata(i64 noundef %9, ptr noundef @weakkeymap_type)
  store ptr %10, ptr %6, align 8, !tbaa !20
  call void @llvm.lifetime.start.p0(i64 8, ptr %7) #15
  %11 = load ptr, ptr %6, align 8, !tbaa !20
  %12 = getelementptr inbounds nuw %struct.weakkeymap, ptr %11, i32 0, i32 0
  %13 = load ptr, ptr %12, align 8, !tbaa !22
  %14 = ptrtoint ptr %5 to i64
  %15 = call i32 @rb_st_lookup(ptr noundef %13, i64 noundef %14, ptr noundef %7)
  %16 = icmp ne i32 %15, 0
  br i1 %16, label %18, label %17

17:                                               ; preds = %2
  store i64 36, ptr %3, align 8
  store i32 1, ptr %8, align 4
  br label %20

18:                                               ; preds = %2
  %19 = load i64, ptr %7, align 8, !tbaa !7
  store i64 %19, ptr %3, align 8
  store i32 1, ptr %8, align 4
  br label %20

20:                                               ; preds = %18, %17
  call void @llvm.lifetime.end.p0(i64 8, ptr %7) #15
  call void @llvm.lifetime.end.p0(i64 8, ptr %6) #15
  %21 = load i64, ptr %3, align 8
  ret i64 %21
}

; Function Attrs: nounwind sspstrong uwtable
define internal i64 @wkmap_aref(i64 noundef %0, i64 noundef %1) #0 {
  %3 = alloca i64, align 8
  %4 = alloca i64, align 8
  %5 = alloca i64, align 8
  store i64 %0, ptr %3, align 8, !tbaa !7
  store i64 %1, ptr %4, align 8, !tbaa !7
  call void @llvm.lifetime.start.p0(i64 8, ptr %5) #15
  %6 = load i64, ptr %3, align 8, !tbaa !7
  %7 = load i64, ptr %4, align 8, !tbaa !7
  %8 = call i64 @wkmap_lookup(i64 noundef %6, i64 noundef %7)
  store i64 %8, ptr %5, align 8, !tbaa !7
  %9 = load i64, ptr %5, align 8, !tbaa !7
  %10 = call zeroext i1 @RB_UNDEF_P(i64 noundef %9) #16
  br i1 %10, label %13, label %11

11:                                               ; preds = %2
  %12 = load i64, ptr %5, align 8, !tbaa !7
  br label %14

13:                                               ; preds = %2
  br label %14

14:                                               ; preds = %13, %11
  %15 = phi i64 [ %12, %11 ], [ 4, %13 ]
  call void @llvm.lifetime.end.p0(i64 8, ptr %5) #15
  ret i64 %15
}