; Function Attrs: nounwind sspstrong uwtable
define internal i64 @wkmap_aref(i64 noundef %0, i64 noundef %1) #0 {
  %3 = alloca i64, align 8
  %4 = alloca i64, align 8
  call void @llvm.lifetime.start.p0(i64 8, ptr nonnull %3)
  store i64 %1, ptr %3, align 8, !tbaa !7
  %5 = tail call ptr @rb_check_typeddata(i64 noundef %0, ptr noundef nonnull @weakkeymap_type) #10
  call void @llvm.lifetime.start.p0(i64 8, ptr nonnull %4) #10
  %6 = load ptr, ptr %5, align 8, !tbaa !30
  %7 = ptrtoint ptr %3 to i64
  %8 = call i32 @rb_st_lookup(ptr noundef %6, i64 noundef %7, ptr noundef nonnull %4) #10
  %.not.i = icmp eq i32 %8, 0
  %9 = load i64, ptr %4, align 8
  %.0.i = select i1 %.not.i, i64 36, i64 %9
  call void @llvm.lifetime.end.p0(i64 8, ptr nonnull %4) #10
  call void @llvm.lifetime.end.p0(i64 8, ptr nonnull %3)
  %10 = icmp eq i64 %.0.i, 36
  %11 = select i1 %10, i64 4, i64 %.0.i
  ret i64 %11
}